target datalayout = "e-m:e-p270:32:32-p271:32:32-p272:64:64-i64:64-i128:128-f80:128-n8:16:32:64-S128"
target triple = "x86_64-pc-linux-gnu"

%"struct.duckdb::StringDictionaryContainer" = type { i32, i32 }
%"class.duckdb::BufferHandle" = type { %"class.duckdb::shared_ptr", %"class.duckdb::optional_ptr" }
%"class.duckdb::shared_ptr" = type { %"class.std::shared_ptr" }
%"class.std::shared_ptr" = type { %"class.std::__shared_ptr" }
%"class.std::__shared_ptr" = type { ptr, %"class.std::__shared_count" }
%"class.std::__shared_count" = type { ptr }
%"class.duckdb::optional_ptr" = type { ptr }
%"struct.duckdb::CompressedStringScanState" = type { %"struct.duckdb::StringScanState", %"class.duckdb::BufferHandle", %"class.duckdb::optional_ptr.155", i8, %"class.duckdb::shared_ptr.156", i64, ptr, ptr, ptr, i32, %"class.duckdb::shared_ptr.160", i64, %"struct.duckdb::StringDictionaryContainer", i64 }
%"struct.duckdb::StringScanState" = type { %"struct.duckdb::SegmentScanState", %"class.duckdb::BufferHandle" }
%"struct.duckdb::SegmentScanState" = type { ptr }
%"class.duckdb::optional_ptr.155" = type { ptr }
%"class.duckdb::shared_ptr.156" = type { %"class.std::shared_ptr.157" }
%"class.std::shared_ptr.157" = type { %"class.std::__shared_ptr.158" }
%"class.std::__shared_ptr.158" = type { ptr, %"class.std::__shared_count" }
%"class.duckdb::shared_ptr.160" = type { %"class.std::shared_ptr.161" }
%"class.std::shared_ptr.161" = type { %"class.std::__shared_ptr.162" }
%"class.std::__shared_ptr.162" = type { ptr, %"class.std::__shared_count" }

; Function Attrs: mustprogress nounwind uwtable
define linkonce_odr noundef zeroext i16 @_ZN6duckdb17UnsafeNumericCastItjvEET_T0_(i32 noundef %0) #3 comdat {
  %2 = alloca i32, align 4
  store i32 %0, ptr %2, align 4, !tbaa !67
  %3 = load i32, ptr %2, align 4, !tbaa !67
  %4 = trunc i32 %3 to i16
  ret i16 %4
}

; Function Attrs: mustprogress uwtable
define noundef zeroext i16 @_ZN6duckdb25CompressedStringScanState15GetStringLengthEj(ptr noundef nonnull align 8 dereferenceable(168) %0, i32 noundef %1) #0 align 2 {
  %3 = alloca i16, align 2
  %4 = alloca ptr, align 8
  %5 = alloca i32, align 4
  store ptr %0, ptr %4, align 8, !tbaa !243
  store i32 %1, ptr %5, align 4, !tbaa !67
  %6 = load ptr, ptr %4, align 8
  %7 = load i32, ptr %5, align 4, !tbaa !67
  %8 = icmp eq i32 %7, 0
  br i1 %8, label %9, label %10

9:                                                ; preds = %2
  store i16 0, ptr %3, align 2
  br label %26

10:                                               ; preds = %2
  %11 = getelementptr inbounds nuw %"struct.duckdb::CompressedStringScanState", ptr %6, i32 0, i32 8
  %12 = load ptr, ptr %11, align 8, !tbaa !245
  %13 = load i32, ptr %5, align 4, !tbaa !67
  %14 = zext i32 %13 to i64
  %15 = getelementptr inbounds nuw i32, ptr %12, i64 %14
  %16 = load i32, ptr %15, align 4, !tbaa !67
  %17 = getelementptr inbounds nuw %"struct.duckdb::CompressedStringScanState", ptr %6, i32 0, i32 8
  %18 = load ptr, ptr %17, align 8, !tbaa !245
  %19 = load i32, ptr %5, align 4, !tbaa !67
  %20 = sub i32 %19, 1
  %21 = zext i32 %20 to i64
  %22 = getelementptr inbounds nuw i32, ptr %18, i64 %21
  %23 = load i32, ptr %22, align 4, !tbaa !67
  %24 = sub i32 %16, %23
  %25 = call noundef zeroext i16 @_ZN6duckdb17UnsafeNumericCastItjvEET_T0_(i32 noundef %24)
  store i16 %25, ptr %3, align 2
  br label %26

26:                                               ; preds = %10, %9
  %27 = load i16, ptr %3, align 2
  ret i16 %27
}