; Function Attrs: mustprogress nofree norecurse nosync nounwind willreturn memory(read, inaccessiblemem: none) uwtable
define noundef zeroext i16 @_ZN6duckdb25CompressedStringScanState15GetStringLengthEj(ptr noundef nonnull readonly align 8 captures(none) dereferenceable(168) %0, i32 noundef %1) local_unnamed_addr #12 align 2 {
  %3 = icmp eq i32 %1, 0
  br i1 %3, label %16, label %4

4:                                                ; preds = %2
  %5 = getelementptr inbounds nuw i8, ptr %0, i64 112
  %6 = load ptr, ptr %5, align 8, !tbaa !188
  %7 = zext i32 %1 to i64
  %8 = getelementptr inbounds nuw i32, ptr %6, i64 %7
  %9 = load i32, ptr %8, align 4, !tbaa !80
  %10 = add i32 %1, -1
  %11 = zext i32 %10 to i64
  %12 = getelementptr inbounds nuw i32, ptr %6, i64 %11
  %13 = load i32, ptr %12, align 4, !tbaa !80
  %14 = sub i32 %9, %13
  %15 = trunc i32 %14 to i16
  br label %16

16:                                               ; preds = %2, %4
  %.0 = phi i16 [ %15, %4 ], [ 0, %2 ]
  ret i16 %.0
}